target datalayout = "e-m:e-p270:32:32-p271:32:32-p272:64:64-i64:64-i128:128-f80:128-n8:16:32:64-S128"
target triple = "x86_64-pc-linux-gnu"

%class.bv_bound_chk_tactic = type <{ %class.tactic.base, [4 x i8], ptr, %class.params_ref, %struct.bv_bound_chk_stats, [4 x i8] }>
%class.tactic.base = type <{ %"class.user_propagator::core", i32 }>
%"class.user_propagator::core" = type { ptr }
%class.params_ref = type { ptr }
%struct.bv_bound_chk_stats = type { i32, i32, i32 }
%"class.bv_bound_chk_tactic::imp" = type { %struct.bv_bound_chk_rewriter }
%struct.bv_bound_chk_rewriter = type { %class.rewriter_tpl, %struct.bv_bound_chk_rewriter_cfg }
%class.rewriter_tpl = type { %class.rewriter_core, ptr, i32, %class.ptr_vector.1, %class.var_shifter, %class.inv_var_shifter, %class.obj_ref, %class.obj_ref.10, %class.obj_ref.10, %class.svector.11 }
%class.rewriter_core = type { ptr, ptr, i8, i8, %class.ptr_vector, ptr, %class.svector, %class.ref_vector, %class.ptr_vector, ptr, %class.ref_vector.3, %class.obj_hashtable, ptr, i32, %class.svector.8 }
%class.svector = type { %class.vector.0 }
%class.vector.0 = type { ptr }
%class.ref_vector = type { %class.ref_vector_core }
%class.ref_vector_core = type { %class.ref_manager_wrapper, %class.ptr_vector.1 }
%class.ref_manager_wrapper = type { ptr }
%class.ptr_vector = type { %class.vector }
%class.vector = type { ptr }
%class.ref_vector.3 = type { %class.ref_vector_core.4 }
%class.ref_vector_core.4 = type { %class.ref_manager_wrapper.5, %class.ptr_vector.6 }
%class.ref_manager_wrapper.5 = type { ptr }
%class.ptr_vector.6 = type { %class.vector.7 }
%class.vector.7 = type { ptr }
%class.obj_hashtable = type { %class.core_hashtable.base, [4 x i8] }
%class.core_hashtable.base = type <{ ptr, i32, i32, i32 }>
%class.svector.8 = type { %class.vector.9 }
%class.vector.9 = type { ptr }
%class.ptr_vector.1 = type { %class.vector.2 }
%class.vector.2 = type { ptr }
%class.var_shifter = type <{ %class.var_shifter_core, i32, i32, i32, [4 x i8] }>
%class.var_shifter_core = type { %class.rewriter_core }
%class.inv_var_shifter = type <{ %class.var_shifter_core, i32, [4 x i8] }>
%class.obj_ref = type { ptr, ptr }
%class.obj_ref.10 = type { ptr, ptr }
%class.svector.11 = type { %class.vector.12 }
%class.vector.12 = type { ptr }
%struct.bv_bound_chk_rewriter_cfg = type { ptr, i32, %class.bool_rewriter, i64, i64, ptr }
%class.bool_rewriter = type { ptr, i8, i8, i8, i8, i8, i8, i32, i8, i32, i32, i8, %class.ptr_vector.1, %class.ptr_vector.1, %class.svector.11, %class.svector.11 }

; Function Attrs: mustprogress nounwind uwtable
define linkonce_odr hidden void @_ZN25bv_bound_chk_rewriter_cfg16reset_statisticsEv(ptr noundef nonnull align 8 dereferenceable(112) %0) #6 comdat align 2 {
  %2 = alloca ptr, align 8
  store ptr %0, ptr %2, align 8, !tbaa !109
  %3 = load ptr, ptr %2, align 8
  %4 = getelementptr inbounds nuw %struct.bv_bound_chk_rewriter_cfg, ptr %3, i32 0, i32 5
  %5 = load ptr, ptr %4, align 8, !tbaa !374
  %6 = getelementptr inbounds nuw %struct.bv_bound_chk_stats, ptr %5, i32 0, i32 0
  store i32 0, ptr %6, align 4, !tbaa !28
  %7 = getelementptr inbounds nuw %struct.bv_bound_chk_rewriter_cfg, ptr %3, i32 0, i32 5
  %8 = load ptr, ptr %7, align 8, !tbaa !374
  %9 = getelementptr inbounds nuw %struct.bv_bound_chk_stats, ptr %8, i32 0, i32 1
  store i32 0, ptr %9, align 4, !tbaa !29
  %10 = getelementptr inbounds nuw %struct.bv_bound_chk_rewriter_cfg, ptr %3, i32 0, i32 5
  %11 = load ptr, ptr %10, align 8, !tbaa !374
  %12 = getelementptr inbounds nuw %struct.bv_bound_chk_stats, ptr %11, i32 0, i32 2
  store i32 0, ptr %12, align 4, !tbaa !30
  ret void
}

; Function Attrs: mustprogress uwtable
define linkonce_odr hidden void @_ZN21bv_bound_chk_rewriter16reset_statisticsEv(ptr noundef nonnull align 8 dereferenceable(648) %0) #4 comdat align 2 {
  %2 = alloca ptr, align 8
  store ptr %0, ptr %2, align 8, !tbaa !107
  %3 = load ptr, ptr %2, align 8
  %4 = getelementptr inbounds nuw %struct.bv_bound_chk_rewriter, ptr %3, i32 0, i32 1
  call void @_ZN25bv_bound_chk_rewriter_cfg16reset_statisticsEv(ptr noundef nonnull align 8 dereferenceable(112) %4)
  ret void
}

; Function Attrs: mustprogress uwtable
define linkonce_odr hidden void @_ZN19bv_bound_chk_tactic3imp16reset_statisticsEv(ptr noundef nonnull align 8 dereferenceable(648) %0) #4 comdat align 2 {
  %2 = alloca ptr, align 8
  store ptr %0, ptr %2, align 8, !tbaa !31
  %3 = load ptr, ptr %2, align 8
  %4 = getelementptr inbounds nuw %"class.bv_bound_chk_tactic::imp", ptr %3, i32 0, i32 0
  call void @_ZN21bv_bound_chk_rewriter16reset_statisticsEv(ptr noundef nonnull align 8 dereferenceable(648) %4)
  ret void
}

; Function Attrs: mustprogress uwtable
define hidden void @_ZN19bv_bound_chk_tactic16reset_statisticsEv(ptr noundef nonnull align 8 dereferenceable(44) %0) unnamed_addr #4 align 2 {
  %2 = alloca ptr, align 8
  store ptr %0, ptr %2, align 8, !tbaa !3
  %3 = load ptr, ptr %2, align 8
  %4 = getelementptr inbounds nuw %class.bv_bound_chk_tactic, ptr %3, i32 0, i32 2
  %5 = load ptr, ptr %4, align 8, !tbaa !14
  call void @_ZN19bv_bound_chk_tactic3imp16reset_statisticsEv(ptr noundef nonnull align 8 dereferenceable(648) %5)
  ret void
}